target datalayout = "e-m:e-p270:32:32-p271:32:32-p272:64:64-i64:64-i128:128-f80:128-n8:16:32:64-S128"
target triple = "x86_64-pc-linux-gnu"

%struct.TValue = type { %union.Value, i8 }
%union.Value = type { ptr }
%struct.Table = type { ptr, i8, i8, i8, i8, i32, ptr, ptr, ptr, ptr }
%struct.lua_State = type { ptr, i8, i8, i8, i8, i16, %union.StkIdRel, ptr, ptr, %union.StkIdRel, %union.StkIdRel, ptr, %union.StkIdRel, ptr, ptr, ptr, %struct.CallInfo, ptr, i64, i32, i32, i32, i32, i32, %struct.anon.3 }
%union.StkIdRel = type { ptr }
%struct.CallInfo = type { %union.StkIdRel, %union.StkIdRel, ptr, ptr, %union.anon.0, %union.anon.2, i32 }
%union.anon.0 = type { %struct.anon.1 }
%struct.anon.1 = type { ptr, i64, i64 }
%union.anon.2 = type { i32 }
%struct.anon.3 = type { i32, i32 }
%struct.global_State = type { ptr, ptr, i64, i64, i64, i64, %struct.stringtable, %struct.TValue, %struct.TValue, i32, [6 x i8], i8, i8, i8, i8, i8, i8, ptr, ptr, ptr, ptr, ptr, ptr, ptr, ptr, ptr, ptr, ptr, ptr, ptr, ptr, ptr, ptr, ptr, ptr, ptr, ptr, ptr, [25 x ptr], [9 x ptr], [53 x [2 x ptr]], ptr, ptr }
%struct.stringtable = type { ptr, i32, i32 }

@.str = private unnamed_addr constant [6 x i8] c"index\00", align 1
@.str.1 = private unnamed_addr constant [40 x i8] c"'__index' chain too long; possible loop\00", align 1

; Function Attrs: nounwind uwtable
define hidden zeroext i8 @luaV_finishget(ptr noundef %0, ptr noundef %1, ptr noundef %2, ptr noundef %3, i8 noundef zeroext %4) #0 {
  %6 = alloca i8, align 1
  %7 = alloca ptr, align 8
  %8 = alloca ptr, align 8
  %9 = alloca ptr, align 8
  %10 = alloca ptr, align 8
  %11 = alloca i8, align 1
  %12 = alloca i32, align 4
  %13 = alloca ptr, align 8
  %14 = alloca i32, align 4
  store ptr %0, ptr %7, align 8, !tbaa !32
  store ptr %1, ptr %8, align 8, !tbaa !4
  store ptr %2, ptr %9, align 8, !tbaa !4
  store ptr %3, ptr %10, align 8, !tbaa !34
  store i8 %4, ptr %11, align 1, !tbaa !13
  call void @llvm.lifetime.start.p0(i64 4, ptr %12) #10
  call void @llvm.lifetime.start.p0(i64 8, ptr %13) #10
  store i32 0, ptr %12, align 4, !tbaa !29
  br label %15

15:                                               ; preds = %123, %5
  %16 = load i32, ptr %12, align 4, !tbaa !29
  %17 = icmp slt i32 %16, 2000
  br i1 %17, label %18, label %126

18:                                               ; preds = %15
  %19 = load i8, ptr %11, align 1, !tbaa !13
  %20 = zext i8 %19 to i32
  %21 = icmp eq i32 %20, 48
  br i1 %21, label %22, label %42

22:                                               ; preds = %18
  %23 = load ptr, ptr %7, align 8, !tbaa !32
  %24 = load ptr, ptr %8, align 8, !tbaa !4
  %25 = call ptr @luaT_gettmbyobj(ptr noundef %23, ptr noundef %24, i32 noundef 0)
  store ptr %25, ptr %13, align 8, !tbaa !4
  %26 = load ptr, ptr %13, align 8, !tbaa !4
  %27 = getelementptr inbounds nuw %struct.TValue, ptr %26, i32 0, i32 1
  %28 = load i8, ptr %27, align 8, !tbaa !11
  %29 = zext i8 %28 to i32
  %30 = and i32 %29, 15
  %31 = icmp eq i32 %30, 0
  %32 = zext i1 %31 to i32
  %33 = icmp ne i32 %32, 0
  %34 = zext i1 %33 to i32
  %35 = sext i32 %34 to i64
  %36 = call i64 @llvm.expect.i64(i64 %35, i64 0)
  %37 = icmp ne i64 %36, 0
  br i1 %37, label %38, label %41

38:                                               ; preds = %22
  %39 = load ptr, ptr %7, align 8, !tbaa !32
  %40 = load ptr, ptr %8, align 8, !tbaa !4
  call void @luaG_typeerror(ptr noundef %39, ptr noundef %40, ptr noundef @.str) #11
  unreachable

41:                                               ; preds = %22
  br label %82

42:                                               ; preds = %18
  %43 = load ptr, ptr %8, align 8, !tbaa !4
  %44 = getelementptr inbounds nuw %struct.TValue, ptr %43, i32 0, i32 0
  %45 = load ptr, ptr %44, align 8, !tbaa !13
  %46 = getelementptr inbounds nuw %struct.Table, ptr %45, i32 0, i32 8
  %47 = load ptr, ptr %46, align 8, !tbaa !36
  %48 = icmp eq ptr %47, null
  br i1 %48, label %60, label %49

49:                                               ; preds = %42
  %50 = load ptr, ptr %8, align 8, !tbaa !4
  %51 = getelementptr inbounds nuw %struct.TValue, ptr %50, i32 0, i32 0
  %52 = load ptr, ptr %51, align 8, !tbaa !13
  %53 = getelementptr inbounds nuw %struct.Table, ptr %52, i32 0, i32 8
  %54 = load ptr, ptr %53, align 8, !tbaa !36
  %55 = getelementptr inbounds nuw %struct.Table, ptr %54, i32 0, i32 3
  %56 = load i8, ptr %55, align 2, !tbaa !41
  %57 = zext i8 %56 to i32
  %58 = and i32 %57, 1
  %59 = icmp ne i32 %58, 0
  br i1 %59, label %60, label %61

60:                                               ; preds = %49, %42
  br label %74

61:                                               ; preds = %49
  %62 = load ptr, ptr %8, align 8, !tbaa !4
  %63 = getelementptr inbounds nuw %struct.TValue, ptr %62, i32 0, i32 0
  %64 = load ptr, ptr %63, align 8, !tbaa !13
  %65 = getelementptr inbounds nuw %struct.Table, ptr %64, i32 0, i32 8
  %66 = load ptr, ptr %65, align 8, !tbaa !36
  %67 = load ptr, ptr %7, align 8, !tbaa !32
  %68 = getelementptr inbounds nuw %struct.lua_State, ptr %67, i32 0, i32 7
  %69 = load ptr, ptr %68, align 8, !tbaa !42
  %70 = getelementptr inbounds nuw %struct.global_State, ptr %69, i32 0, i32 38
  %71 = getelementptr inbounds [25 x ptr], ptr %70, i64 0, i64 0
  %72 = load ptr, ptr %71, align 8, !tbaa !16
  %73 = call ptr @luaT_gettm(ptr noundef %66, i32 noundef 0, ptr noundef %72)
  br label %74

74:                                               ; preds = %61, %60
  %75 = phi ptr [ null, %60 ], [ %73, %61 ]
  store ptr %75, ptr %13, align 8, !tbaa !4
  %76 = load ptr, ptr %13, align 8, !tbaa !4
  %77 = icmp eq ptr %76, null
  br i1 %77, label %78, label %81

78:                                               ; preds = %74
  %79 = load ptr, ptr %10, align 8, !tbaa !34
  %80 = getelementptr inbounds nuw %struct.TValue, ptr %79, i32 0, i32 1
  store i8 0, ptr %80, align 8, !tbaa !13
  store i8 0, ptr %6, align 1
  store i32 1, ptr %14, align 4
  br label %128

81:                                               ; preds = %74
  br label %82

82:                                               ; preds = %81, %41
  %83 = load ptr, ptr %13, align 8, !tbaa !4
  %84 = getelementptr inbounds nuw %struct.TValue, ptr %83, i32 0, i32 1
  %85 = load i8, ptr %84, align 8, !tbaa !11
  %86 = zext i8 %85 to i32
  %87 = and i32 %86, 15
  %88 = icmp eq i32 %87, 6
  br i1 %88, label %89, label %97

89:                                               ; preds = %82
  %90 = load ptr, ptr %7, align 8, !tbaa !32
  %91 = load ptr, ptr %13, align 8, !tbaa !4
  %92 = load ptr, ptr %8, align 8, !tbaa !4
  %93 = load ptr, ptr %9, align 8, !tbaa !4
  %94 = load ptr, ptr %10, align 8, !tbaa !34
  %95 = call zeroext i8 @luaT_callTMres(ptr noundef %90, ptr noundef %91, ptr noundef %92, ptr noundef %93, ptr noundef %94)
  store i8 %95, ptr %11, align 1, !tbaa !13
  %96 = load i8, ptr %11, align 1, !tbaa !13
  store i8 %96, ptr %6, align 1
  store i32 1, ptr %14, align 4
  br label %128

97:                                               ; preds = %82
  %98 = load ptr, ptr %13, align 8, !tbaa !4
  store ptr %98, ptr %8, align 8, !tbaa !4
  %99 = load ptr, ptr %8, align 8, !tbaa !4
  %100 = getelementptr inbounds nuw %struct.TValue, ptr %99, i32 0, i32 1
  %101 = load i8, ptr %100, align 8, !tbaa !11
  %102 = zext i8 %101 to i32
  %103 = icmp eq i32 %102, 69
  br i1 %103, label %105, label %104

104:                                              ; preds = %97
  br label %113

105:                                              ; preds = %97
  %106 = load ptr, ptr %8, align 8, !tbaa !4
  %107 = getelementptr inbounds nuw %struct.TValue, ptr %106, i32 0, i32 0
  %108 = load ptr, ptr %107, align 8, !tbaa !13
  %109 = load ptr, ptr %9, align 8, !tbaa !4
  %110 = load ptr, ptr %10, align 8, !tbaa !34
  %111 = call zeroext i8 @luaH_get(ptr noundef %108, ptr noundef %109, ptr noundef %110)
  %112 = zext i8 %111 to i32
  br label %113

113:                                              ; preds = %105, %104
  %114 = phi i32 [ 48, %104 ], [ %112, %105 ]
  %115 = trunc i32 %114 to i8
  store i8 %115, ptr %11, align 1, !tbaa !13
  %116 = load i8, ptr %11, align 1, !tbaa !13
  %117 = zext i8 %116 to i32
  %118 = and i32 %117, 15
  %119 = icmp eq i32 %118, 0
  br i1 %119, label %122, label %120

120:                                              ; preds = %113
  %121 = load i8, ptr %11, align 1, !tbaa !13
  store i8 %121, ptr %6, align 1
  store i32 1, ptr %14, align 4
  br label %128

122:                                              ; preds = %113
  br label %123

123:                                              ; preds = %122
  %124 = load i32, ptr %12, align 4, !tbaa !29
  %125 = add nsw i32 %124, 1
  store i32 %125, ptr %12, align 4, !tbaa !29
  br label %15

126:                                              ; preds = %15
  %127 = load ptr, ptr %7, align 8, !tbaa !32
  call void (ptr, ptr, ...) @luaG_runerror(ptr noundef %127, ptr noundef @.str.1) #11
  unreachable

128:                                              ; preds = %120, %89, %78
  call void @llvm.lifetime.end.p0(i64 8, ptr %13) #10
  call void @llvm.lifetime.end.p0(i64 4, ptr %12) #10
  %129 = load i8, ptr %6, align 1
  ret i8 %129
}