; Function Attrs: nounwind uwtable
define hidden zeroext i8 @luaV_finishget(ptr noundef %0, ptr noundef %1, ptr noundef %2, ptr noundef %3, i8 noundef zeroext %4) local_unnamed_addr #0 {
  %6 = getelementptr inbounds nuw i8, ptr %0, i64 24
  br label %7

7:                                                ; preds = %5, %.thread35
  %.02943 = phi i32 [ 0, %5 ], [ %46, %.thread35 ]
  %.03042 = phi i8 [ %4, %5 ], [ %45, %.thread35 ]
  %.03241 = phi ptr [ %1, %5 ], [ %.0, %.thread35 ]
  %8 = icmp eq i8 %.03042, 48
  br i1 %8, label %9, label %16

9:                                                ; preds = %7
  %10 = tail call ptr @luaT_gettmbyobj(ptr noundef %0, ptr noundef %.03241, i32 noundef 0) #13
  %11 = getelementptr inbounds nuw i8, ptr %10, i64 8
  %12 = load i8, ptr %11, align 8, !tbaa !4
  %13 = and i8 %12, 15
  %14 = icmp eq i8 %13, 0
  br i1 %14, label %15, label %32, !prof !20

15:                                               ; preds = %9
  tail call void @luaG_typeerror(ptr noundef %0, ptr noundef %.03241, ptr noundef nonnull @.str) #14
  unreachable

16:                                               ; preds = %7
  %17 = load ptr, ptr %.03241, align 8, !tbaa !8
  %18 = getelementptr inbounds nuw i8, ptr %17, i64 32
  %19 = load ptr, ptr %18, align 8, !tbaa !21
  %20 = icmp eq ptr %19, null
  br i1 %20, label %.thread, label %21

21:                                               ; preds = %16
  %22 = getelementptr inbounds nuw i8, ptr %19, i64 10
  %23 = load i8, ptr %22, align 2, !tbaa !26
  %24 = and i8 %23, 1
  %.not = icmp eq i8 %24, 0
  br i1 %.not, label %25, label %.thread

25:                                               ; preds = %21
  %26 = load ptr, ptr %6, align 8, !tbaa !27
  %27 = getelementptr inbounds nuw i8, ptr %26, i64 280
  %28 = load ptr, ptr %27, align 8, !tbaa !38
  %29 = tail call ptr @luaT_gettm(ptr noundef nonnull %19, i32 noundef 0, ptr noundef %28) #13
  %30 = icmp eq ptr %29, null
  br i1 %30, label %.thread, label %._crit_edge

._crit_edge:                                      ; preds = %25
  %.phi.trans.insert = getelementptr inbounds nuw i8, ptr %29, i64 8
  %.pre = load i8, ptr %.phi.trans.insert, align 8, !tbaa !4
  br label %32

.thread:                                          ; preds = %16, %21, %25
  %31 = getelementptr inbounds nuw i8, ptr %3, i64 8
  store i8 0, ptr %31, align 8, !tbaa !8
  br label %.loopexit

32:                                               ; preds = %._crit_edge, %9
  %33 = phi i8 [ %12, %9 ], [ %.pre, %._crit_edge ]
  %.0 = phi ptr [ %10, %9 ], [ %29, %._crit_edge ]
  %34 = and i8 %33, 15
  %35 = icmp eq i8 %34, 6
  br i1 %35, label %36, label %38

36:                                               ; preds = %32
  %37 = tail call zeroext i8 @luaT_callTMres(ptr noundef %0, ptr noundef nonnull %.0, ptr noundef %.03241, ptr noundef %2, ptr noundef %3) #13
  br label %.loopexit

38:                                               ; preds = %32
  %39 = icmp eq i8 %33, 69
  br i1 %39, label %40, label %.thread35

40:                                               ; preds = %38
  %41 = load ptr, ptr %.0, align 8, !tbaa !8
  %42 = tail call zeroext i8 @luaH_get(ptr noundef %41, ptr noundef %2, ptr noundef %3) #13
  %43 = and i8 %42, 15
  %44 = icmp eq i8 %43, 0
  br i1 %44, label %.thread35, label %.loopexit

.thread35:                                        ; preds = %38, %40
  %45 = phi i8 [ %42, %40 ], [ 48, %38 ]
  %46 = add nuw nsw i32 %.02943, 1
  %exitcond.not = icmp eq i32 %46, 2000
  br i1 %exitcond.not, label %47, label %7

47:                                               ; preds = %.thread35
  tail call void (ptr, ptr, ...) @luaG_runerror(ptr noundef %0, ptr noundef nonnull @.str.1) #14
  unreachable

.loopexit:                                        ; preds = %40, %36, %.thread
  %.031 = phi i8 [ %37, %36 ], [ 0, %.thread ], [ %42, %40 ]
  ret i8 %.031
}